target datalayout = "e-m:e-p270:32:32-p271:32:32-p272:64:64-i64:64-i128:128-f80:128-n8:16:32:64-S128"
target triple = "x86_64-pc-linux-gnu"

%struct._wmem_tree_t = type { ptr, ptr, ptr, i32, i32, ptr }
%struct._wmem_tree_node_t = type { ptr, ptr, ptr, ptr, ptr, i32, i8, i8 }

; Function Attrs: null_pointer_is_valid sspstrong uwtable
define void @wmem_tree_destroy(ptr noundef %0, i1 noundef zeroext %1, i1 noundef zeroext %2) #0 {
  %4 = alloca ptr, align 8
  %5 = alloca i8, align 1
  %6 = alloca i8, align 1
  store ptr %0, ptr %4, align 8
  %7 = zext i1 %1 to i8
  store i8 %7, ptr %5, align 1
  %8 = zext i1 %2 to i8
  store i8 %8, ptr %6, align 1
  %9 = load ptr, ptr %4, align 8
  %10 = getelementptr inbounds nuw %struct._wmem_tree_t, ptr %9, i32 0, i32 1
  %11 = load ptr, ptr %10, align 8
  %12 = load ptr, ptr %4, align 8
  %13 = getelementptr inbounds nuw %struct._wmem_tree_t, ptr %12, i32 0, i32 2
  %14 = load ptr, ptr %13, align 8
  %15 = load i8, ptr %5, align 1, !range !6, !noundef !7
  %16 = trunc i8 %15 to i1
  %17 = load i8, ptr %6, align 1, !range !6, !noundef !7
  %18 = trunc i8 %17 to i1
  call void @free_tree_node(ptr noundef %11, ptr noundef %14, i1 noundef zeroext %16, i1 noundef zeroext %18)
  %19 = load ptr, ptr %4, align 8
  %20 = getelementptr inbounds nuw %struct._wmem_tree_t, ptr %19, i32 0, i32 0
  %21 = load ptr, ptr %20, align 8
  %22 = icmp ne ptr %21, null
  br i1 %22, label %23, label %30

23:                                               ; preds = %3
  %24 = load ptr, ptr %4, align 8
  %25 = getelementptr inbounds nuw %struct._wmem_tree_t, ptr %24, i32 0, i32 0
  %26 = load ptr, ptr %25, align 8
  %27 = load ptr, ptr %4, align 8
  %28 = getelementptr inbounds nuw %struct._wmem_tree_t, ptr %27, i32 0, i32 3
  %29 = load i32, ptr %28, align 8
  call void @wmem_unregister_callback(ptr noundef %26, i32 noundef %29)
  br label %30

30:                                               ; preds = %23, %3
  %31 = load ptr, ptr %4, align 8
  %32 = getelementptr inbounds nuw %struct._wmem_tree_t, ptr %31, i32 0, i32 1
  %33 = load ptr, ptr %32, align 8
  %34 = icmp ne ptr %33, null
  br i1 %34, label %35, label %42

35:                                               ; preds = %30
  %36 = load ptr, ptr %4, align 8
  %37 = getelementptr inbounds nuw %struct._wmem_tree_t, ptr %36, i32 0, i32 1
  %38 = load ptr, ptr %37, align 8
  %39 = load ptr, ptr %4, align 8
  %40 = getelementptr inbounds nuw %struct._wmem_tree_t, ptr %39, i32 0, i32 4
  %41 = load i32, ptr %40, align 4
  call void @wmem_unregister_callback(ptr noundef %38, i32 noundef %41)
  br label %42

42:                                               ; preds = %35, %30
  %43 = load ptr, ptr %4, align 8
  %44 = getelementptr inbounds nuw %struct._wmem_tree_t, ptr %43, i32 0, i32 0
  %45 = load ptr, ptr %44, align 8
  %46 = load ptr, ptr %4, align 8
  call void @wmem_free(ptr noundef %45, ptr noundef %46)
  ret void
}

; Function Attrs: null_pointer_is_valid sspstrong uwtable
define internal void @free_tree_node(ptr noundef %0, ptr noundef %1, i1 noundef zeroext %2, i1 noundef zeroext %3) #0 {
  %5 = alloca ptr, align 8
  %6 = alloca ptr, align 8
  %7 = alloca i8, align 1
  %8 = alloca i8, align 1
  store ptr %0, ptr %5, align 8
  store ptr %1, ptr %6, align 8
  %9 = zext i1 %2 to i8
  store i8 %9, ptr %7, align 1
  %10 = zext i1 %3 to i8
  store i8 %10, ptr %8, align 1
  %11 = load ptr, ptr %6, align 8
  %12 = icmp eq ptr %11, null
  br i1 %12, label %13, label %14

13:                                               ; preds = %4
  br label %76

14:                                               ; preds = %4
  %15 = load ptr, ptr %6, align 8
  %16 = getelementptr inbounds nuw %struct._wmem_tree_node_t, ptr %15, i32 0, i32 1
  %17 = load ptr, ptr %16, align 8
  %18 = icmp ne ptr %17, null
  br i1 %18, label %19, label %28

19:                                               ; preds = %14
  %20 = load ptr, ptr %5, align 8
  %21 = load ptr, ptr %6, align 8
  %22 = getelementptr inbounds nuw %struct._wmem_tree_node_t, ptr %21, i32 0, i32 1
  %23 = load ptr, ptr %22, align 8
  %24 = load i8, ptr %7, align 1, !range !6, !noundef !7
  %25 = trunc i8 %24 to i1
  %26 = load i8, ptr %8, align 1, !range !6, !noundef !7
  %27 = trunc i8 %26 to i1
  call void @free_tree_node(ptr noundef %20, ptr noundef %23, i1 noundef zeroext %25, i1 noundef zeroext %27)
  br label %28

28:                                               ; preds = %19, %14
  %29 = load ptr, ptr %6, align 8
  %30 = getelementptr inbounds nuw %struct._wmem_tree_node_t, ptr %29, i32 0, i32 6
  %31 = load i8, ptr %30, align 4, !range !6, !noundef !7
  %32 = trunc i8 %31 to i1
  br i1 %32, label %33, label %43

33:                                               ; preds = %28
  %34 = load ptr, ptr %6, align 8
  %35 = getelementptr inbounds nuw %struct._wmem_tree_node_t, ptr %34, i32 0, i32 4
  %36 = load ptr, ptr %35, align 8
  %37 = load i8, ptr %7, align 1, !range !6, !noundef !7
  %38 = trunc i8 %37 to i1
  %39 = load i8, ptr %8, align 1, !range !6, !noundef !7
  %40 = trunc i8 %39 to i1
  call void @wmem_tree_destroy(ptr noundef %36, i1 noundef zeroext %38, i1 noundef zeroext %40)
  %41 = load ptr, ptr %6, align 8
  %42 = getelementptr inbounds nuw %struct._wmem_tree_node_t, ptr %41, i32 0, i32 4
  store ptr null, ptr %42, align 8
  br label %43

43:                                               ; preds = %33, %28
  %44 = load ptr, ptr %6, align 8
  %45 = getelementptr inbounds nuw %struct._wmem_tree_node_t, ptr %44, i32 0, i32 2
  %46 = load ptr, ptr %45, align 8
  %47 = icmp ne ptr %46, null
  br i1 %47, label %48, label %57

48:                                               ; preds = %43
  %49 = load ptr, ptr %5, align 8
  %50 = load ptr, ptr %6, align 8
  %51 = getelementptr inbounds nuw %struct._wmem_tree_node_t, ptr %50, i32 0, i32 2
  %52 = load ptr, ptr %51, align 8
  %53 = load i8, ptr %7, align 1, !range !6, !noundef !7
  %54 = trunc i8 %53 to i1
  %55 = load i8, ptr %8, align 1, !range !6, !noundef !7
  %56 = trunc i8 %55 to i1
  call void @free_tree_node(ptr noundef %49, ptr noundef %52, i1 noundef zeroext %54, i1 noundef zeroext %56)
  br label %57

57:                                               ; preds = %48, %43
  %58 = load i8, ptr %7, align 1, !range !6, !noundef !7
  %59 = trunc i8 %58 to i1
  br i1 %59, label %60, label %65

60:                                               ; preds = %57
  %61 = load ptr, ptr %5, align 8
  %62 = load ptr, ptr %6, align 8
  %63 = getelementptr inbounds nuw %struct._wmem_tree_node_t, ptr %62, i32 0, i32 3
  %64 = load ptr, ptr %63, align 8
  call void @wmem_free(ptr noundef %61, ptr noundef %64)
  br label %65

65:                                               ; preds = %60, %57
  %66 = load i8, ptr %8, align 1, !range !6, !noundef !7
  %67 = trunc i8 %66 to i1
  br i1 %67, label %68, label %73

68:                                               ; preds = %65
  %69 = load ptr, ptr %5, align 8
  %70 = load ptr, ptr %6, align 8
  %71 = getelementptr inbounds nuw %struct._wmem_tree_node_t, ptr %70, i32 0, i32 4
  %72 = load ptr, ptr %71, align 8
  call void @wmem_free(ptr noundef %69, ptr noundef %72)
  br label %73

73:                                               ; preds = %68, %65
  %74 = load ptr, ptr %5, align 8
  %75 = load ptr, ptr %6, align 8
  call void @wmem_free(ptr noundef %74, ptr noundef %75)
  br label %76

76:                                               ; preds = %73, %13
  ret void
}