; Function Attrs: null_pointer_is_valid sspstrong uwtable
define internal fastcc void @free_tree_node(ptr noundef %0, ptr noundef %1, i1 noundef zeroext %2, i1 noundef zeroext %3) unnamed_addr #0 {
  %5 = icmp eq ptr %1, null
  br i1 %5, label %44, label %6

6:                                                ; preds = %4
  %7 = getelementptr inbounds nuw i8, ptr %1, i64 8
  %8 = load ptr, ptr %7, align 8
  %.not = icmp eq ptr %8, null
  br i1 %.not, label %10, label %9

9:                                                ; preds = %6
  tail call fastcc void @free_tree_node(ptr noundef %0, ptr noundef nonnull %8, i1 noundef zeroext %2, i1 noundef zeroext %3)
  br label %10

10:                                               ; preds = %9, %6
  %11 = getelementptr inbounds nuw i8, ptr %1, i64 44
  %12 = load i8, ptr %11, align 4, !range !6, !noundef !7
  %13 = trunc nuw i8 %12 to i1
  br i1 %13, label %14, label %31

14:                                               ; preds = %10
  %15 = getelementptr inbounds nuw i8, ptr %1, i64 32
  %16 = load ptr, ptr %15, align 8
  %17 = getelementptr inbounds nuw i8, ptr %16, i64 8
  %18 = load ptr, ptr %17, align 8
  %19 = getelementptr inbounds nuw i8, ptr %16, i64 16
  %20 = load ptr, ptr %19, align 8
  tail call fastcc void @free_tree_node(ptr noundef %18, ptr noundef %20, i1 noundef zeroext %2, i1 noundef zeroext %3)
  %21 = load ptr, ptr %16, align 8
  %.not.i = icmp eq ptr %21, null
  br i1 %.not.i, label %25, label %22

22:                                               ; preds = %14
  %23 = getelementptr inbounds nuw i8, ptr %16, i64 24
  %24 = load i32, ptr %23, align 8
  tail call void @wmem_unregister_callback(ptr noundef nonnull %21, i32 noundef %24)
  br label %25

25:                                               ; preds = %22, %14
  %26 = load ptr, ptr %17, align 8
  %.not12.i = icmp eq ptr %26, null
  br i1 %.not12.i, label %wmem_tree_destroy.exit, label %27

27:                                               ; preds = %25
  %28 = getelementptr inbounds nuw i8, ptr %16, i64 28
  %29 = load i32, ptr %28, align 4
  tail call void @wmem_unregister_callback(ptr noundef nonnull %26, i32 noundef %29)
  br label %wmem_tree_destroy.exit

wmem_tree_destroy.exit:                           ; preds = %25, %27
  %30 = load ptr, ptr %16, align 8
  tail call void @wmem_free(ptr noundef %30, ptr noundef %16)
  store ptr null, ptr %15, align 8
  br label %31

31:                                               ; preds = %wmem_tree_destroy.exit, %10
  %32 = getelementptr inbounds nuw i8, ptr %1, i64 16
  %33 = load ptr, ptr %32, align 8
  %.not25 = icmp eq ptr %33, null
  br i1 %.not25, label %35, label %34

34:                                               ; preds = %31
  tail call fastcc void @free_tree_node(ptr noundef %0, ptr noundef nonnull %33, i1 noundef zeroext %2, i1 noundef zeroext %3)
  br label %35

35:                                               ; preds = %34, %31
  br i1 %2, label %36, label %39

36:                                               ; preds = %35
  %37 = getelementptr inbounds nuw i8, ptr %1, i64 24
  %38 = load ptr, ptr %37, align 8
  tail call void @wmem_free(ptr noundef %0, ptr noundef %38)
  br label %39

39:                                               ; preds = %36, %35
  br i1 %3, label %40, label %43

40:                                               ; preds = %39
  %41 = getelementptr inbounds nuw i8, ptr %1, i64 32
  %42 = load ptr, ptr %41, align 8
  tail call void @wmem_free(ptr noundef %0, ptr noundef %42)
  br label %43

43:                                               ; preds = %40, %39
  tail call void @wmem_free(ptr noundef %0, ptr noundef nonnull %1)
  br label %44

44:                                               ; preds = %4, %43
  ret void
}